; Function Attrs: mustprogress nounwind uwtable
define hidden noundef zeroext i1 @_ZNK19OpenColorIO_v2_5dev27MixingColorSpaceManagerImpl21isPerceptuallyUniformEv(ptr noundef nonnull align 8 dereferenceable(128) %0) unnamed_addr #2 align 2 {
  %2 = getelementptr inbounds nuw i8, ptr %0, i64 112
  %3 = load ptr, ptr %2, align 8, !tbaa !63
  %.not = icmp eq ptr %3, null
  br i1 %.not, label %4, label %10

4:                                                ; preds = %1
  %5 = load ptr, ptr %0, align 8, !tbaa !3
  %6 = getelementptr inbounds nuw i8, ptr %5, i64 16
  %7 = load ptr, ptr %6, align 8
  %8 = tail call noundef i64 %7(ptr noundef nonnull align 8 dereferenceable(128) %0) #25
  %9 = icmp ne i64 %8, 0
  br label %10

10:                                               ; preds = %1, %4
  %11 = phi i1 [ %9, %4 ], [ true, %1 ]
  ret i1 %11
}